; Function Attrs: mustprogress nofree norecurse nosync nounwind willreturn memory(argmem: readwrite) uwtable
define void @_ZN7rocksdb19WriteBatchWithIndexC2EOS0_(ptr noundef nonnull writeonly align 8 captures(none) dereferenceable(16) initializes((0, 16)) %0, ptr noundef nonnull align 8 captures(none) dereferenceable(16) %1) unnamed_addr #10 align 2 {
  store ptr getelementptr inbounds nuw inrange(-16, 296) (i8, ptr @_ZTVN7rocksdb19WriteBatchWithIndexE, i64 16), ptr %0, align 8, !tbaa !88
  %3 = getelementptr inbounds nuw i8, ptr %0, i64 8
  %4 = getelementptr inbounds nuw i8, ptr %1, i64 8
  %5 = load i64, ptr %4, align 8, !tbaa !202
  store i64 %5, ptr %3, align 8, !tbaa !202
  store ptr null, ptr %4, align 8, !tbaa !202
  ret void
}